target datalayout = "e-m:e-p270:32:32-p271:32:32-p272:64:64-i64:64-i128:128-f80:128-n8:16:32:64-S128"
target triple = "x86_64-pc-linux-gnu"

%struct.test_fixture = type { ptr, ptr, i32, i32, i32, ptr, i32, ptr }
%struct.ossl_cmp_certresponse_st = type { ptr, ptr, ptr, ptr }
%struct.ossl_cmp_certifiedkeypair_st = type { ptr, ptr, ptr }
%struct.ossl_cmp_certorenccert_st = type { i32, %union.anon.0 }
%union.anon.0 = type { ptr }
%struct.ossl_cmp_certrepmessage_st = type { ptr, ptr }

@cert = internal global ptr null, align 8
@.str.14 = private unnamed_addr constant [31 x i8] c"../openssl/test/cmp_msg_test.c\00", align 1
@.str.42 = private unnamed_addr constant [24 x i8] c"test_cmp_create_certrep\00", align 1
@.str.76 = private unnamed_addr constant [11 x i8] c"read_cresp\00", align 1
@.str.77 = private unnamed_addr constant [55 x i8] c"ossl_cmp_certrepmessage_get0_certresponse(crepmsg, 88)\00", align 1
@.str.78 = private unnamed_addr constant [29 x i8] c"X509_cmp(cert, certfromresp)\00", align 1
@.str.79 = private unnamed_addr constant [2 x i8] c"0\00", align 1

; Function Attrs: inlinehint nounwind uwtable
define internal ptr @ossl_check_OSSL_CMP_CERTRESPONSE_type(ptr noundef %0) #3 {
  %2 = alloca ptr, align 8
  store ptr %0, ptr %2, align 8, !tbaa !56
  %3 = load ptr, ptr %2, align 8, !tbaa !56
  ret ptr %3
}

; Function Attrs: inlinehint nounwind uwtable
define internal ptr @ossl_check_OSSL_CMP_CERTRESPONSE_sk_type(ptr noundef %0) #3 {
  %2 = alloca ptr, align 8
  store ptr %0, ptr %2, align 8, !tbaa !72
  %3 = load ptr, ptr %2, align 8, !tbaa !72
  ret ptr %3
}

; Function Attrs: nounwind uwtable
define internal void @tear_down(ptr noundef %0) #0 {
  %2 = alloca ptr, align 8
  store ptr %0, ptr %2, align 8, !tbaa !17
  %3 = load ptr, ptr %2, align 8, !tbaa !17
  %4 = getelementptr inbounds nuw %struct.test_fixture, ptr %3, i32 0, i32 1
  %5 = load ptr, ptr %4, align 8, !tbaa !28
  call void @OSSL_CMP_CTX_free(ptr noundef %5)
  %6 = load ptr, ptr %2, align 8, !tbaa !17
  %7 = getelementptr inbounds nuw %struct.test_fixture, ptr %6, i32 0, i32 5
  %8 = load ptr, ptr %7, align 8, !tbaa !37
  call void @OSSL_CMP_MSG_free(ptr noundef %8)
  %9 = load ptr, ptr %2, align 8, !tbaa !17
  %10 = getelementptr inbounds nuw %struct.test_fixture, ptr %9, i32 0, i32 7
  %11 = load ptr, ptr %10, align 8, !tbaa !30
  call void @OSSL_CMP_PKISI_free(ptr noundef %11)
  %12 = load ptr, ptr %2, align 8, !tbaa !17
  call void @CRYPTO_free(ptr noundef %12, ptr noundef @.str.14, i32 noundef 43)
  ret void
}

; Function Attrs: nounwind uwtable
define internal i32 @execute_certrep_create(ptr noundef %0) #0 {
  %2 = alloca ptr, align 8
  %3 = alloca ptr, align 8
  %4 = alloca ptr, align 8
  %5 = alloca ptr, align 8
  %6 = alloca ptr, align 8
  %7 = alloca ptr, align 8
  %8 = alloca i32, align 4
  store ptr %0, ptr %2, align 8, !tbaa !17
  call void @llvm.lifetime.start.p0(i64 8, ptr %3) #4
  %9 = load ptr, ptr %2, align 8, !tbaa !17
  %10 = getelementptr inbounds nuw %struct.test_fixture, ptr %9, i32 0, i32 1
  %11 = load ptr, ptr %10, align 8, !tbaa !28
  store ptr %11, ptr %3, align 8, !tbaa !29
  call void @llvm.lifetime.start.p0(i64 8, ptr %4) #4
  %12 = call ptr @OSSL_CMP_CERTREPMESSAGE_new()
  store ptr %12, ptr %4, align 8, !tbaa !54
  call void @llvm.lifetime.start.p0(i64 8, ptr %5) #4
  call void @llvm.lifetime.start.p0(i64 8, ptr %6) #4
  %13 = call ptr @OSSL_CMP_CERTRESPONSE_new()
  store ptr %13, ptr %6, align 8, !tbaa !56
  call void @llvm.lifetime.start.p0(i64 8, ptr %7) #4
  store ptr null, ptr %7, align 8, !tbaa !9
  call void @llvm.lifetime.start.p0(i64 4, ptr %8) #4
  store i32 0, ptr %8, align 4, !tbaa !19
  %14 = load ptr, ptr %4, align 8, !tbaa !54
  %15 = icmp eq ptr %14, null
  br i1 %15, label %19, label %16

16:                                               ; preds = %1
  %17 = load ptr, ptr %6, align 8, !tbaa !56
  %18 = icmp eq ptr %17, null
  br i1 %18, label %19, label %20

19:                                               ; preds = %16, %1
  br label %86

20:                                               ; preds = %16
  %21 = load ptr, ptr %6, align 8, !tbaa !56
  %22 = getelementptr inbounds nuw %struct.ossl_cmp_certresponse_st, ptr %21, i32 0, i32 0
  %23 = load ptr, ptr %22, align 8, !tbaa !58
  %24 = call i32 @ASN1_INTEGER_set(ptr noundef %23, i64 noundef 99)
  %25 = icmp ne i32 %24, 0
  br i1 %25, label %27, label %26

26:                                               ; preds = %20
  br label %86

27:                                               ; preds = %20
  %28 = call ptr @OSSL_CMP_CERTIFIEDKEYPAIR_new()
  %29 = load ptr, ptr %6, align 8, !tbaa !56
  %30 = getelementptr inbounds nuw %struct.ossl_cmp_certresponse_st, ptr %29, i32 0, i32 2
  store ptr %28, ptr %30, align 8, !tbaa !61
  %31 = icmp eq ptr %28, null
  br i1 %31, label %32, label %33

32:                                               ; preds = %27
  br label %86

33:                                               ; preds = %27
  %34 = load ptr, ptr %6, align 8, !tbaa !56
  %35 = getelementptr inbounds nuw %struct.ossl_cmp_certresponse_st, ptr %34, i32 0, i32 2
  %36 = load ptr, ptr %35, align 8, !tbaa !61
  %37 = getelementptr inbounds nuw %struct.ossl_cmp_certifiedkeypair_st, ptr %36, i32 0, i32 0
  %38 = load ptr, ptr %37, align 8, !tbaa !62
  %39 = getelementptr inbounds nuw %struct.ossl_cmp_certorenccert_st, ptr %38, i32 0, i32 0
  store i32 0, ptr %39, align 8, !tbaa !67
  %40 = load ptr, ptr @cert, align 8, !tbaa !9
  %41 = call ptr @X509_dup(ptr noundef %40)
  %42 = load ptr, ptr %6, align 8, !tbaa !56
  %43 = getelementptr inbounds nuw %struct.ossl_cmp_certresponse_st, ptr %42, i32 0, i32 2
  %44 = load ptr, ptr %43, align 8, !tbaa !61
  %45 = getelementptr inbounds nuw %struct.ossl_cmp_certifiedkeypair_st, ptr %44, i32 0, i32 0
  %46 = load ptr, ptr %45, align 8, !tbaa !62
  %47 = getelementptr inbounds nuw %struct.ossl_cmp_certorenccert_st, ptr %46, i32 0, i32 1
  store ptr %41, ptr %47, align 8, !tbaa !53
  %48 = icmp eq ptr %41, null
  br i1 %48, label %58, label %49

49:                                               ; preds = %33
  %50 = load ptr, ptr %4, align 8, !tbaa !54
  %51 = getelementptr inbounds nuw %struct.ossl_cmp_certrepmessage_st, ptr %50, i32 0, i32 1
  %52 = load ptr, ptr %51, align 8, !tbaa !69
  %53 = call ptr @ossl_check_OSSL_CMP_CERTRESPONSE_sk_type(ptr noundef %52)
  %54 = load ptr, ptr %6, align 8, !tbaa !56
  %55 = call ptr @ossl_check_OSSL_CMP_CERTRESPONSE_type(ptr noundef %54)
  %56 = call i32 @OPENSSL_sk_push(ptr noundef %53, ptr noundef %55)
  %57 = icmp ne i32 %56, 0
  br i1 %57, label %59, label %58

58:                                               ; preds = %49, %33
  br label %86

59:                                               ; preds = %49
  store ptr null, ptr %6, align 8, !tbaa !56
  %60 = load ptr, ptr %4, align 8, !tbaa !54
  %61 = call ptr @ossl_cmp_certrepmessage_get0_certresponse(ptr noundef %60, i32 noundef 99)
  store ptr %61, ptr %5, align 8, !tbaa !56
  %62 = load ptr, ptr %5, align 8, !tbaa !56
  %63 = call i32 @test_ptr(ptr noundef @.str.14, i32 noundef 402, ptr noundef @.str.76, ptr noundef %62)
  %64 = icmp ne i32 %63, 0
  br i1 %64, label %66, label %65

65:                                               ; preds = %59
  br label %86

66:                                               ; preds = %59
  %67 = load ptr, ptr %4, align 8, !tbaa !54
  %68 = call ptr @ossl_cmp_certrepmessage_get0_certresponse(ptr noundef %67, i32 noundef 88)
  %69 = call i32 @test_ptr_null(ptr noundef @.str.14, i32 noundef 404, ptr noundef @.str.77, ptr noundef %68)
  %70 = icmp ne i32 %69, 0
  br i1 %70, label %72, label %71

71:                                               ; preds = %66
  br label %86

72:                                               ; preds = %66
  %73 = load ptr, ptr %3, align 8, !tbaa !29
  %74 = load ptr, ptr %5, align 8, !tbaa !56
  %75 = call ptr @ossl_cmp_certresponse_get1_cert(ptr noundef %73, ptr noundef %74)
  store ptr %75, ptr %7, align 8, !tbaa !9
  %76 = load ptr, ptr %7, align 8, !tbaa !9
  %77 = icmp eq ptr %76, null
  br i1 %77, label %84, label %78

78:                                               ; preds = %72
  %79 = load ptr, ptr @cert, align 8, !tbaa !9
  %80 = load ptr, ptr %7, align 8, !tbaa !9
  %81 = call i32 @X509_cmp(ptr noundef %79, ptr noundef %80)
  %82 = call i32 @test_int_eq(ptr noundef @.str.14, i32 noundef 407, ptr noundef @.str.78, ptr noundef @.str.79, i32 noundef %81, i32 noundef 0)
  %83 = icmp ne i32 %82, 0
  br i1 %83, label %85, label %84

84:                                               ; preds = %78, %72
  br label %86

85:                                               ; preds = %78
  store i32 1, ptr %8, align 4, !tbaa !19
  br label %86

86:                                               ; preds = %85, %84, %71, %65, %58, %32, %26, %19
  %87 = load ptr, ptr %7, align 8, !tbaa !9
  call void @X509_free(ptr noundef %87)
  %88 = load ptr, ptr %6, align 8, !tbaa !56
  call void @OSSL_CMP_CERTRESPONSE_free(ptr noundef %88)
  %89 = load ptr, ptr %4, align 8, !tbaa !54
  call void @OSSL_CMP_CERTREPMESSAGE_free(ptr noundef %89)
  %90 = load i32, ptr %8, align 4, !tbaa !19
  call void @llvm.lifetime.end.p0(i64 4, ptr %8) #4
  call void @llvm.lifetime.end.p0(i64 8, ptr %7) #4
  call void @llvm.lifetime.end.p0(i64 8, ptr %6) #4
  call void @llvm.lifetime.end.p0(i64 8, ptr %5) #4
  call void @llvm.lifetime.end.p0(i64 8, ptr %4) #4
  call void @llvm.lifetime.end.p0(i64 8, ptr %3) #4
  ret i32 %90
}

; Function Attrs: nounwind uwtable
define internal i32 @test_cmp_create_certrep() #0 {
  %1 = alloca i32, align 4
  %2 = alloca ptr, align 8
  %3 = alloca i32, align 4
  %4 = alloca i32, align 4
  call void @llvm.lifetime.start.p0(i64 8, ptr %2) #4
  %5 = call ptr @set_up(ptr noundef @.str.42)
  store ptr %5, ptr %2, align 8, !tbaa !17
  call void @llvm.lifetime.start.p0(i64 4, ptr %3) #4
  store i32 0, ptr %3, align 4, !tbaa !19
  %6 = load ptr, ptr %2, align 8, !tbaa !17
  %7 = icmp eq ptr %6, null
  br i1 %7, label %8, label %9

8:                                                ; preds = %0
  store i32 0, ptr %1, align 4
  store i32 1, ptr %4, align 4
  br label %18

9:                                                ; preds = %0
  %10 = load ptr, ptr %2, align 8, !tbaa !17
  %11 = icmp ne ptr %10, null
  br i1 %11, label %12, label %16

12:                                               ; preds = %9
  %13 = load ptr, ptr %2, align 8, !tbaa !17
  %14 = call i32 @execute_certrep_create(ptr noundef %13)
  store i32 %14, ptr %3, align 4, !tbaa !19
  %15 = load ptr, ptr %2, align 8, !tbaa !17
  call void @tear_down(ptr noundef %15)
  br label %16

16:                                               ; preds = %12, %9
  %17 = load i32, ptr %3, align 4, !tbaa !19
  store i32 %17, ptr %1, align 4
  store i32 1, ptr %4, align 4
  br label %18

18:                                               ; preds = %16, %8
  call void @llvm.lifetime.end.p0(i64 4, ptr %3) #4
  call void @llvm.lifetime.end.p0(i64 8, ptr %2) #4
  %19 = load i32, ptr %1, align 4
  ret i32 %19
}