; Function Attrs: nounwind uwtable
define internal range(i32 0, 2) i32 @test_cmp_create_certrep() #0 {
  %1 = tail call fastcc ptr @set_up(ptr noundef nonnull @.str.42)
  %2 = icmp eq ptr %1, null
  br i1 %2, label %46, label %3

3:                                                ; preds = %0
  %4 = getelementptr i8, ptr %1, i64 8
  %.val = load ptr, ptr %4, align 8, !tbaa !25
  %5 = tail call ptr @OSSL_CMP_CERTREPMESSAGE_new() #4
  %6 = tail call ptr @OSSL_CMP_CERTRESPONSE_new() #4
  %7 = icmp eq ptr %5, null
  %8 = icmp eq ptr %6, null
  %or.cond.i = select i1 %7, i1 true, i1 %8
  br i1 %or.cond.i, label %execute_certrep_create.exit, label %9

9:                                                ; preds = %3
  %10 = load ptr, ptr %6, align 8, !tbaa !38
  %11 = tail call i32 @ASN1_INTEGER_set(ptr noundef %10, i64 noundef 99) #4
  %.not.i = icmp eq i32 %11, 0
  br i1 %.not.i, label %execute_certrep_create.exit, label %12

12:                                               ; preds = %9
  %13 = tail call ptr @OSSL_CMP_CERTIFIEDKEYPAIR_new() #4
  %14 = getelementptr inbounds nuw i8, ptr %6, i64 16
  store ptr %13, ptr %14, align 8, !tbaa !41
  %15 = icmp eq ptr %13, null
  br i1 %15, label %execute_certrep_create.exit, label %16

16:                                               ; preds = %12
  %17 = load ptr, ptr %13, align 8, !tbaa !42
  store i32 0, ptr %17, align 8, !tbaa !47
  %18 = load ptr, ptr @cert, align 8, !tbaa !9
  %19 = tail call ptr @X509_dup(ptr noundef %18) #4
  %20 = load ptr, ptr %14, align 8, !tbaa !41
  %21 = load ptr, ptr %20, align 8, !tbaa !42
  %22 = getelementptr inbounds nuw i8, ptr %21, i64 8
  store ptr %19, ptr %22, align 8, !tbaa !37
  %23 = icmp eq ptr %19, null
  br i1 %23, label %execute_certrep_create.exit, label %24

24:                                               ; preds = %16
  %25 = getelementptr inbounds nuw i8, ptr %5, i64 8
  %26 = load ptr, ptr %25, align 8, !tbaa !49
  %27 = tail call i32 @OPENSSL_sk_push(ptr noundef %26, ptr noundef nonnull %6) #4
  %.not26.i = icmp eq i32 %27, 0
  br i1 %.not26.i, label %execute_certrep_create.exit, label %28

28:                                               ; preds = %24
  %29 = tail call ptr @ossl_cmp_certrepmessage_get0_certresponse(ptr noundef nonnull %5, i32 noundef 99) #4
  %30 = tail call i32 @test_ptr(ptr noundef nonnull @.str.14, i32 noundef 402, ptr noundef nonnull @.str.76, ptr noundef %29) #4
  %.not27.i = icmp eq i32 %30, 0
  br i1 %.not27.i, label %execute_certrep_create.exit, label %31

31:                                               ; preds = %28
  %32 = tail call ptr @ossl_cmp_certrepmessage_get0_certresponse(ptr noundef nonnull %5, i32 noundef 88) #4
  %33 = tail call i32 @test_ptr_null(ptr noundef nonnull @.str.14, i32 noundef 404, ptr noundef nonnull @.str.77, ptr noundef %32) #4
  %.not28.i = icmp eq i32 %33, 0
  br i1 %.not28.i, label %execute_certrep_create.exit, label %34

34:                                               ; preds = %31
  %35 = tail call ptr @ossl_cmp_certresponse_get1_cert(ptr noundef %.val, ptr noundef %29) #4
  %36 = icmp eq ptr %35, null
  br i1 %36, label %execute_certrep_create.exit, label %37

37:                                               ; preds = %34
  %38 = load ptr, ptr @cert, align 8, !tbaa !9
  %39 = tail call i32 @X509_cmp(ptr noundef %38, ptr noundef nonnull %35) #4
  %40 = tail call i32 @test_int_eq(ptr noundef nonnull @.str.14, i32 noundef 407, ptr noundef nonnull @.str.78, ptr noundef nonnull @.str.79, i32 noundef %39, i32 noundef 0) #4
  %.not29.i = icmp ne i32 %40, 0
  %spec.select.i = zext i1 %.not29.i to i32
  br label %execute_certrep_create.exit

execute_certrep_create.exit:                      ; preds = %3, %9, %12, %16, %24, %28, %31, %34, %37
  %.021.i = phi ptr [ %6, %3 ], [ %6, %12 ], [ %6, %16 ], [ null, %34 ], [ null, %31 ], [ null, %28 ], [ %6, %24 ], [ %6, %9 ], [ null, %37 ]
  %.020.i = phi ptr [ null, %3 ], [ null, %12 ], [ null, %16 ], [ null, %34 ], [ null, %31 ], [ null, %28 ], [ null, %24 ], [ null, %9 ], [ %35, %37 ]
  %.0.i = phi i32 [ 0, %3 ], [ 0, %12 ], [ 0, %16 ], [ 0, %34 ], [ 0, %31 ], [ 0, %28 ], [ 0, %24 ], [ 0, %9 ], [ %spec.select.i, %37 ]
  tail call void @X509_free(ptr noundef %.020.i) #4
  tail call void @OSSL_CMP_CERTRESPONSE_free(ptr noundef %.021.i) #4
  tail call void @OSSL_CMP_CERTREPMESSAGE_free(ptr noundef %5) #4
  %41 = load ptr, ptr %4, align 8, !tbaa !25
  tail call void @OSSL_CMP_CTX_free(ptr noundef %41) #4
  %42 = getelementptr inbounds nuw i8, ptr %1, i64 32
  %43 = load ptr, ptr %42, align 8, !tbaa !26
  tail call void @OSSL_CMP_MSG_free(ptr noundef %43) #4
  %44 = getelementptr inbounds nuw i8, ptr %1, i64 48
  %45 = load ptr, ptr %44, align 8, !tbaa !27
  tail call void @OSSL_CMP_PKISI_free(ptr noundef %45) #4
  tail call void @CRYPTO_free(ptr noundef nonnull %1, ptr noundef nonnull @.str.14, i32 noundef 43) #4
  br label %46

46:                                               ; preds = %0, %execute_certrep_create.exit
  %.05 = phi i32 [ %.0.i, %execute_certrep_create.exit ], [ 0, %0 ]
  ret i32 %.05
}